target datalayout = "e-m:e-p270:32:32-p271:32:32-p272:64:64-i64:64-i128:128-f80:128-n8:16:32:64-S128"
target triple = "x86_64-pc-linux-gnu"

%struct.darktable_t = type { %struct.dt_codepath_t, i32, i32, ptr, ptr, ptr, ptr, ptr, ptr, ptr, ptr, ptr, ptr, ptr, ptr, ptr, ptr, ptr, ptr, ptr, ptr, ptr, ptr, ptr, ptr, ptr, ptr, ptr, ptr, ptr, [64 x %struct.dt_pthread_mutex_t], %struct.dt_pthread_mutex_t, %struct.dt_pthread_mutex_t, %struct.dt_pthread_mutex_t, %struct.dt_pthread_mutex_t, %struct.dt_pthread_mutex_t, ptr, ptr, ptr, ptr, ptr, ptr, ptr, ptr, ptr, ptr, ptr, ptr, ptr, %struct.dt_lua_state_t, ptr, double, ptr, i32, [47 x i32], i32, i32, ptr, ptr, %struct.dt_sys_resources_t, %struct.dt_backthumb_t, %struct.dt_gimp_t }
%struct.dt_codepath_t = type { i8, [3 x i8] }
%struct.dt_pthread_mutex_t = type { %union.pthread_mutex_t }
%union.pthread_mutex_t = type { %struct.__pthread_mutex_s }
%struct.__pthread_mutex_s = type { i32, i32, i32, i32, i32, i16, i16, %struct.__pthread_internal_list }
%struct.__pthread_internal_list = type { ptr, ptr }
%struct.dt_lua_state_t = type { i32 }
%struct.dt_sys_resources_t = type { i64, i64, ptr, ptr, i32 }
%struct.dt_backthumb_t = type { double, double, i32, i32, i32, i32 }
%struct.dt_gimp_t = type { i32, ptr, ptr, i32, i32 }
%struct._GdkRGBA = type { double, double, double, double }
%struct._DtBauhausWidget = type { %struct._GtkDrawingArea, i32, ptr, ptr, i32, [256 x i8], i32, ptr, i32, ptr, ptr, i32, ptr, i32, i32, i32, %struct._GtkBorder, %struct._GtkBorder, i32, %union.dt_bauhaus_data_t }
%struct._GtkDrawingArea = type { %struct._GtkWidget, ptr }
%struct._GtkWidget = type { %struct._GObject, ptr }
%struct._GObject = type { %struct._GTypeInstance, i32, ptr }
%struct._GTypeInstance = type { ptr }
%struct._GtkBorder = type { i16, i16, i16, i16 }
%union.dt_bauhaus_data_t = type { %struct.dt_bauhaus_slider_data_t }
%struct.dt_bauhaus_slider_data_t = type { float, float, float, float, float, float, float, float, float, float, i32, ptr, i32, ptr, i8, ptr, float, float, i8, i32, ptr }
%struct.dt_bauhaus_t = type { ptr, %struct.dt_bauhaus_popup_t, ptr, float, float, i32, i32, float, [180 x i8], i32, i32, [2 x i32], i32, ptr, ptr, float, float, float, float, float, ptr, ptr, i32, i32, i32, %struct._GdkRGBA, %struct._GdkRGBA, %struct._GdkRGBA, %struct._GdkRGBA, %struct._GdkRGBA, %struct._GdkRGBA, %struct._GdkRGBA, %struct._GdkRGBA, %struct._GdkRGBA, %struct._GdkRGBA, %struct._GdkRGBA, %struct._GdkRGBA, %struct._GdkRGBA, %struct._GdkRGBA, %struct._GdkRGBA, [3 x %struct._GdkRGBA], [5 x %struct._GdkRGBA] }
%struct.dt_bauhaus_popup_t = type { ptr, ptr, %struct._GtkBorder, %struct._cairo_rectangle_int, i32, i32, i32 }
%struct._cairo_rectangle_int = type { i32, i32, i32, i32 }
%struct.dt_bauhaus_combobox_data_t = type { i32, i32, i32, i32, ptr, i32, ptr, i32, ptr }

@darktable = external global %struct.darktable_t, align 8
@.str.47 = private unnamed_addr constant [14 x i8] c"value-changed\00", align 1

; Function Attrs: nounwind uwtable
define internal void @_stop_cursor() #0 {
  %1 = alloca ptr, align 8
  call void @llvm.lifetime.start.p0(i64 8, ptr %1) #13
  %2 = load ptr, ptr getelementptr inbounds nuw (%struct.darktable_t, ptr @darktable, i32 0, i32 17), align 8, !tbaa !78
  store ptr %2, ptr %1, align 8, !tbaa !79
  %3 = load ptr, ptr %1, align 8, !tbaa !79
  %4 = getelementptr inbounds nuw %struct.dt_bauhaus_t, ptr %3, i32 0, i32 22
  %5 = load i32, ptr %4, align 8, !tbaa !360
  %6 = icmp ugt i32 %5, 0
  br i1 %6, label %7, label %16

7:                                                ; preds = %0
  %8 = load ptr, ptr %1, align 8, !tbaa !79
  %9 = getelementptr inbounds nuw %struct.dt_bauhaus_t, ptr %8, i32 0, i32 22
  %10 = load i32, ptr %9, align 8, !tbaa !360
  %11 = call i32 @g_source_remove(i32 noundef %10)
  %12 = load ptr, ptr %1, align 8, !tbaa !79
  %13 = getelementptr inbounds nuw %struct.dt_bauhaus_t, ptr %12, i32 0, i32 22
  store i32 0, ptr %13, align 8, !tbaa !360
  %14 = load ptr, ptr %1, align 8, !tbaa !79
  %15 = getelementptr inbounds nuw %struct.dt_bauhaus_t, ptr %14, i32 0, i32 23
  store i32 0, ptr %15, align 4, !tbaa !182
  br label %16

16:                                               ; preds = %7, %0
  call void @llvm.lifetime.end.p0(i64 8, ptr %1) #13
  ret void
}

; Function Attrs: nounwind uwtable
define internal void @_popup_hide() #0 {
  %1 = alloca ptr, align 8
  %2 = alloca ptr, align 8
  %3 = alloca ptr, align 8
  call void @llvm.lifetime.start.p0(i64 8, ptr %1) #13
  %4 = load ptr, ptr getelementptr inbounds nuw (%struct.darktable_t, ptr @darktable, i32 0, i32 17), align 8, !tbaa !78
  store ptr %4, ptr %1, align 8, !tbaa !79
  call void @llvm.lifetime.start.p0(i64 8, ptr %2) #13
  %5 = load ptr, ptr %1, align 8, !tbaa !79
  %6 = getelementptr inbounds nuw %struct.dt_bauhaus_t, ptr %5, i32 0, i32 1
  store ptr %6, ptr %2, align 8, !tbaa !101
  call void @llvm.lifetime.start.p0(i64 8, ptr %3) #13
  %7 = load ptr, ptr %1, align 8, !tbaa !79
  %8 = getelementptr inbounds nuw %struct.dt_bauhaus_t, ptr %7, i32 0, i32 0
  %9 = load ptr, ptr %8, align 8, !tbaa !104
  store ptr %9, ptr %3, align 8, !tbaa !17
  %10 = load ptr, ptr %3, align 8, !tbaa !17
  %11 = icmp ne ptr %10, null
  br i1 %11, label %12, label %49

12:                                               ; preds = %0
  %13 = load ptr, ptr %3, align 8, !tbaa !17
  %14 = getelementptr inbounds nuw %struct._DtBauhausWidget, ptr %13, i32 0, i32 1
  %15 = load i32, ptr %14, align 8, !tbaa !139
  %16 = icmp eq i32 %15, 2
  br i1 %16, label %17, label %31

17:                                               ; preds = %12
  %18 = load ptr, ptr %3, align 8, !tbaa !17
  %19 = getelementptr inbounds nuw %struct._DtBauhausWidget, ptr %18, i32 0, i32 19
  %20 = getelementptr inbounds nuw %struct.dt_bauhaus_combobox_data_t, ptr %19, i32 0, i32 7
  %21 = load i32, ptr %20, align 8, !tbaa !164
  %22 = icmp ne i32 %21, 0
  br i1 %22, label %23, label %31

23:                                               ; preds = %17
  %24 = load ptr, ptr %1, align 8, !tbaa !79
  %25 = getelementptr inbounds nuw %struct.dt_bauhaus_t, ptr %24, i32 0, i32 6
  %26 = load i32, ptr %25, align 4, !tbaa !150
  %27 = icmp ne i32 %26, 0
  br i1 %27, label %28, label %31

28:                                               ; preds = %23
  %29 = load ptr, ptr %3, align 8, !tbaa !17
  %30 = call ptr @g_type_check_instance_cast(ptr noundef %29, i64 noundef 80)
  call void (ptr, ptr, ...) @g_signal_emit_by_name(ptr noundef %30, ptr noundef @.str.47)
  br label %31

31:                                               ; preds = %28, %23, %17, %12
  %32 = load ptr, ptr %2, align 8, !tbaa !101
  %33 = getelementptr inbounds nuw %struct.dt_bauhaus_popup_t, ptr %32, i32 0, i32 1
  %34 = load ptr, ptr %33, align 8, !tbaa !109
  call void @gtk_grab_remove(ptr noundef %34)
  %35 = load ptr, ptr %2, align 8, !tbaa !101
  %36 = getelementptr inbounds nuw %struct.dt_bauhaus_popup_t, ptr %35, i32 0, i32 0
  %37 = load ptr, ptr %36, align 8, !tbaa !108
  call void @gtk_widget_hide(ptr noundef %37)
  %38 = load ptr, ptr %2, align 8, !tbaa !101
  %39 = getelementptr inbounds nuw %struct.dt_bauhaus_popup_t, ptr %38, i32 0, i32 0
  %40 = load ptr, ptr %39, align 8, !tbaa !108
  %41 = call i64 @gtk_window_get_type() #14
  %42 = call ptr @g_type_check_instance_cast(ptr noundef %40, i64 noundef %41)
  call void @gtk_window_set_attached_to(ptr noundef %42, ptr noundef null)
  %43 = load ptr, ptr %2, align 8, !tbaa !101
  %44 = getelementptr inbounds nuw %struct.dt_bauhaus_popup_t, ptr %43, i32 0, i32 0
  %45 = load ptr, ptr %44, align 8, !tbaa !108
  %46 = call i32 @g_signal_handlers_disconnect_matched(ptr noundef %45, i32 noundef 24, i32 noundef 0, i32 noundef 0, ptr noundef null, ptr noundef @dt_shortcut_dispatcher, ptr noundef null)
  %47 = load ptr, ptr %1, align 8, !tbaa !79
  %48 = getelementptr inbounds nuw %struct.dt_bauhaus_t, ptr %47, i32 0, i32 0
  store ptr null, ptr %48, align 8, !tbaa !104
  br label %49

49:                                               ; preds = %31, %0
  call void @_stop_cursor()
  call void @llvm.lifetime.end.p0(i64 8, ptr %3) #13
  call void @llvm.lifetime.end.p0(i64 8, ptr %2) #13
  call void @llvm.lifetime.end.p0(i64 8, ptr %1) #13
  ret void
}