; Function Attrs: nounwind uwtable
define internal fastcc void @_popup_hide() unnamed_addr #0 {
  %1 = load ptr, ptr getelementptr inbounds nuw (i8, ptr @darktable, i64 128), align 8, !tbaa !67
  %2 = getelementptr inbounds nuw i8, ptr %1, i64 8
  %3 = load ptr, ptr %1, align 8, !tbaa !94
  %.not = icmp eq ptr %3, null
  br i1 %.not, label %25, label %4

4:                                                ; preds = %0
  %5 = getelementptr inbounds nuw i8, ptr %3, i64 40
  %6 = load i32, ptr %5, align 8, !tbaa !105
  %7 = icmp eq i32 %6, 2
  br i1 %7, label %8, label %16

8:                                                ; preds = %4
  %9 = getelementptr inbounds nuw i8, ptr %3, i64 448
  %10 = load i32, ptr %9, align 8, !tbaa !106
  %.not12 = icmp eq i32 %10, 0
  br i1 %.not12, label %16, label %11

11:                                               ; preds = %8
  %12 = getelementptr inbounds nuw i8, ptr %1, i64 84
  %13 = load i32, ptr %12, align 4, !tbaa !124
  %.not13 = icmp eq i32 %13, 0
  br i1 %.not13, label %16, label %14

14:                                               ; preds = %11
  %15 = tail call ptr @g_type_check_instance_cast(ptr noundef nonnull %3, i64 noundef 80) #19
  tail call void (ptr, ptr, ...) @g_signal_emit_by_name(ptr noundef %15, ptr noundef nonnull @.str.47) #19
  br label %16

16:                                               ; preds = %14, %11, %8, %4
  %17 = getelementptr inbounds nuw i8, ptr %1, i64 16
  %18 = load ptr, ptr %17, align 8, !tbaa !89
  tail call void @gtk_grab_remove(ptr noundef %18) #19
  %19 = load ptr, ptr %2, align 8, !tbaa !88
  tail call void @gtk_widget_hide(ptr noundef %19) #19
  %20 = load ptr, ptr %2, align 8, !tbaa !88
  %21 = tail call i64 @gtk_window_get_type() #20
  %22 = tail call ptr @g_type_check_instance_cast(ptr noundef %20, i64 noundef %21) #19
  tail call void @gtk_window_set_attached_to(ptr noundef %22, ptr noundef null) #19
  %23 = load ptr, ptr %2, align 8, !tbaa !88
  %24 = tail call i32 @g_signal_handlers_disconnect_matched(ptr noundef %23, i32 noundef 24, i32 noundef 0, i32 noundef 0, ptr noundef null, ptr noundef nonnull @dt_shortcut_dispatcher, ptr noundef null) #19
  store ptr null, ptr %1, align 8, !tbaa !94
  %.pre = load ptr, ptr getelementptr inbounds nuw (i8, ptr @darktable, i64 128), align 8, !tbaa !67
  br label %25

25:                                               ; preds = %16, %0
  %26 = phi ptr [ %.pre, %16 ], [ %1, %0 ]
  %27 = getelementptr inbounds nuw i8, ptr %26, i64 352
  %28 = load i32, ptr %27, align 8, !tbaa !108
  %.not.i = icmp eq i32 %28, 0
  br i1 %.not.i, label %_stop_cursor.exit, label %29

29:                                               ; preds = %25
  %30 = tail call i32 @g_source_remove(i32 noundef %28) #19
  store i32 0, ptr %27, align 8, !tbaa !108
  %31 = getelementptr inbounds nuw i8, ptr %26, i64 356
  store i32 0, ptr %31, align 4, !tbaa !109
  br label %_stop_cursor.exit

_stop_cursor.exit:                                ; preds = %25, %29
  ret void
}